; Function Attrs: mustprogress uwtable
define noundef zeroext i1 @_ZN5folly14EventBaseEvent15eb_event_activeEi(ptr noundef nonnull align 8 dereferenceable(168) %0, i32 noundef %1) local_unnamed_addr #0 align 2 {
  %3 = getelementptr inbounds nuw i8, ptr %0, i64 128
  %4 = load ptr, ptr %3, align 8, !tbaa !7
  %.not.i = icmp eq ptr %4, null
  br i1 %.not.i, label %_ZNK5folly14EventBaseEvent10getBackendEv.exit.thread, label %_ZNK5folly14EventBaseEvent10getBackendEv.exit

_ZNK5folly14EventBaseEvent10getBackendEv.exit:    ; preds = %2
  %5 = getelementptr inbounds nuw i8, ptr %4, i64 616
  %6 = load ptr, ptr %5, align 8, !tbaa !26
  %.not.not = icmp eq ptr %6, null
  br i1 %.not.not, label %_ZNK5folly14EventBaseEvent10getBackendEv.exit.thread, label %7

7:                                                ; preds = %_ZNK5folly14EventBaseEvent10getBackendEv.exit
  %8 = load ptr, ptr %6, align 8, !tbaa !28
  %9 = getelementptr inbounds nuw i8, ptr %8, i64 72
  %10 = load ptr, ptr %9, align 8
  %11 = tail call noundef zeroext i1 %10(ptr noundef nonnull align 8 dereferenceable(8) %6, ptr noundef nonnull align 8 dereferenceable(168) %0, i32 noundef %1)
  br label %_ZNK5folly14EventBaseEvent10getBackendEv.exit.thread

_ZNK5folly14EventBaseEvent10getBackendEv.exit.thread: ; preds = %2, %_ZNK5folly14EventBaseEvent10getBackendEv.exit, %7
  %12 = phi i1 [ %11, %7 ], [ false, %_ZNK5folly14EventBaseEvent10getBackendEv.exit ], [ false, %2 ]
  ret i1 %12
}